target datalayout = "e-m:e-p270:32:32-p271:32:32-p272:64:64-i64:64-i128:128-f80:128-n8:16:32:64-S128"
target triple = "x86_64-pc-linux-gnu"

%union.union_sockaddr = type { %struct.sockaddr_storage, [1920 x i8] }
%struct.sockaddr_storage = type { i16, [118 x i8], i64 }

@rb_cSocket = external global i64, align 8

; Function Attrs: nounwind sspstrong uwtable
define internal i64 @sock_accept(i64 noundef %0) #0 {
  %2 = alloca i64, align 8
  %3 = alloca %union.union_sockaddr, align 8
  %4 = alloca i32, align 4
  %5 = alloca i64, align 8
  store i64 %0, ptr %2, align 8, !tbaa !11
  call void @llvm.lifetime.start.p0(i64 2048, ptr %3) #24
  call void @llvm.lifetime.start.p0(i64 4, ptr %4) #24
  store i32 2048, ptr %4, align 4, !tbaa !13
  call void @llvm.lifetime.start.p0(i64 8, ptr %5) #24
  %6 = load i64, ptr @rb_cSocket, align 8, !tbaa !11
  %7 = load i64, ptr %2, align 8, !tbaa !11
  %8 = call i64 @rsock_s_accept(i64 noundef %6, i64 noundef %7, ptr noundef %3, ptr noundef %4)
  store i64 %8, ptr %5, align 8, !tbaa !11
  %9 = load i64, ptr %5, align 8, !tbaa !11
  %10 = load i64, ptr %5, align 8, !tbaa !11
  %11 = load i32, ptr %4, align 4, !tbaa !13
  %12 = call i64 @rsock_io_socket_addrinfo(i64 noundef %10, ptr noundef %3, i32 noundef %11)
  %13 = call i64 @rb_assoc_new(i64 noundef %9, i64 noundef %12)
  call void @llvm.lifetime.end.p0(i64 8, ptr %5) #24
  call void @llvm.lifetime.end.p0(i64 4, ptr %4) #24
  call void @llvm.lifetime.end.p0(i64 2048, ptr %3) #24
  ret i64 %13
}