; Function Attrs: nounwind sspstrong uwtable
define internal i64 @sock_accept(i64 noundef %0) #0 {
  %2 = alloca %union.union_sockaddr, align 8
  %3 = alloca i32, align 4
  call void @llvm.lifetime.start.p0(i64 2048, ptr nonnull %2) #16
  call void @llvm.lifetime.start.p0(i64 4, ptr nonnull %3) #16
  store i32 2048, ptr %3, align 4, !tbaa !6
  %4 = load i64, ptr @rb_cSocket, align 8, !tbaa !10
  %5 = call i64 @rsock_s_accept(i64 noundef %4, i64 noundef %0, ptr noundef nonnull %2, ptr noundef nonnull %3) #16
  %6 = load i32, ptr %3, align 4, !tbaa !6
  %7 = call i64 @rsock_io_socket_addrinfo(i64 noundef %5, ptr noundef nonnull %2, i32 noundef %6) #16
  %8 = call i64 @rb_assoc_new(i64 noundef %5, i64 noundef %7) #16
  call void @llvm.lifetime.end.p0(i64 4, ptr nonnull %3) #16
  call void @llvm.lifetime.end.p0(i64 2048, ptr nonnull %2) #16
  ret i64 %8
}